; Function Attrs: nounwind uwtable
define dso_local range(i32 -30, 2) i32 @archive_match_time_excluded(ptr noundef %0, ptr noundef %1) local_unnamed_addr #0 {
  %3 = tail call i32 @__archive_check_magic(ptr noundef %0, i32 noundef 212668873, i32 noundef 1, ptr noundef nonnull @.str.24) #14
  %.not = icmp eq i32 %3, -30
  br i1 %.not, label %14, label %4

4:                                                ; preds = %2
  %5 = icmp eq ptr %1, null
  br i1 %5, label %6, label %7

6:                                                ; preds = %4
  tail call void (ptr, i32, ptr, ...) @archive_set_error(ptr noundef %0, i32 noundef 22, ptr noundef nonnull @.str.2) #14
  br label %14

7:                                                ; preds = %4
  %8 = getelementptr inbounds nuw i8, ptr %0, i64 144
  %9 = load i32, ptr %8, align 8, !tbaa !48
  %10 = and i32 %9, 2
  %11 = icmp eq i32 %10, 0
  br i1 %11, label %14, label %12

12:                                               ; preds = %7
  %13 = tail call fastcc i32 @time_excluded(ptr noundef nonnull %0, ptr noundef %1)
  br label %14

14:                                               ; preds = %7, %2, %12, %6
  %.1 = phi i32 [ -25, %6 ], [ %13, %12 ], [ -30, %2 ], [ 0, %7 ]
  ret i32 %.1
}